(iballclient.service.map
Map
p0
(dp1
S'map'
p2
(lp3
(lp4
I0
aI0
aI0
aI3
aI0
aI0
aI0
aI0
aI0
aI0
aI0
aI0
aI0
aI0
aI0
aI0
aI0
aI0
aI0
aI0
aa(lp5
I0
aI1
aI0
aI0
aI0
aI0
aI0
aI0
aI0
aI0
aI0
aI0
aI0
aI0
aI0
aI0
aI0
aI0
aI1
aI0
aa(lp6
I0
aI2
aI0
aI0
aI0
aI0
aI0
aI1
aI1
aI1
aI1
aI1
aI1
aI0
aI0
aI0
aI0
aI0
aI2
aI0
aa(lp7
I2
aI0
aI0
aI0
aI0
aI0
aI0
aI0
aI0
aI0
aI0
aI0
aI0
aI0
aI0
aI0
aI0
aI0
aI0
aI2
aa(lp8
I0
aI0
aI0
aI0
aI0
aI0
aI0
aI0
aI1
aI0
aI0
aI0
aI1
aI0
aI0
aI0
aI0
aI0
aI0
aI0
aa(lp9
I0
aI0
aI0
aI0
aI0
aI0
aI2
aI2
aI0
aI0
aI0
aI0
aI0
aI2
aI2
aI0
aI0
aI0
aI0
aI0
aa(lp10
I0
aI0
aI0
aI0
aI0
aI0
aI0
aI0
aI1
aI0
aI0
aI0
aI1
aI0
aI0
aI0
aI0
aI0
aI0
aI0
aa(lp11
I0
aI0
aI0
aI0
aI0
aI0
aI0
aI0
aI0
aI0
aI0
aI0
aI0
aI0
aI0
aI0
aI0
aI0
aI0
aI0
aa(lp12
I0
aI0
aI2
aI2
aI2
aI3
aI0
aI0
aI0
aI2
aI0
aI0
aI0
aI0
aI2
aI0
aI0
aI0
aI2
aI0
aa(lp13
I0
aI2
aI0
aI0
aI0
aI0
aI0
aI0
aI2
aI0
aI2
aI0
aI0
aI0
aI2
aI1
aI0
aI0
aI2
aI0
aa(lp14
I0
aI0
aI1
aI1
aI1
aI0
aI0
aI1
aI1
aI1
aI1
aI1
aI0
aI0
aI2
aI0
aI1
aI0
aI2
aI0
aa(lp15
I0
aI0
aI0
aI0
aI0
aI2
aI0
aI2
aI0
aI0
aI0
aI2
aI0
aI0
aI2
aI0
aI0
aI1
aI2
aI0
aa(lp16
I0
aI0
aI2
aI2
aI2
aI0
aI0
aI2
aI0
aI0
aI0
aI2
aI0
aI0
aI2
aI0
aI0
aI0
aI2
aI0
aa(lp17
I0
aI0
aI0
aI0
aI0
aI0
aI0
aI0
aI0
aI0
aI0
aI0
aI0
aI0
aI0
aI0
aI0
aI0
aI3
aI0
aa(lp18
I0
aI0
aI0
aI0
aI0
aI0
aI0
aI0
aI1
aI0
aI0
aI0
aI1
aI0
aI0
aI0
aI0
aI0
aI0
aI0
aa(lp19
I0
aI0
aI0
aI0
aI0
aI0
aI2
aI2
aI0
aI0
aI0
aI0
aI0
aI2
aI2
aI0
aI0
aI0
aI0
aI0
aa(lp20
I2
aI0
aI0
aI0
aI0
aI0
aI0
aI0
aI1
aI0
aI0
aI0
aI1
aI0
aI0
aI0
aI0
aI0
aI0
aI2
aa(lp21
I0
aI2
aI0
aI1
aI1
aI1
aI1
aI0
aI0
aI0
aI0
aI0
aI0
aI0
aI1
aI1
aI1
aI0
aI2
aI0
aa(lp22
I0
aI1
aI0
aI0
aI0
aI0
aI0
aI0
aI0
aI0
aI0
aI0
aI0
aI0
aI0
aI0
aI0
aI0
aI1
aI0
aa(lp23
I0
aI0
aI0
aI0
aI0
aI0
aI0
aI0
aI0
aI0
aI0
aI0
aI0
aI0
aI0
aI0
aI3
aI0
aI0
aI0
aasS'wander_task'
p24
(lp25
(iballclient.service.util
task
p26
(dp27
S'info'
p28
g24
sS'ownIndex'
p29
I0
sS'value'
p30
F0.001
sS'y'
p31
I11
sS'x'
p32
I9
sS'task_state'
p33
I0
sS'id'
p34
I0
sba(iballclient.service.util
task
p35
(dp36
g28
g24
sg29
I1
sg30
F0.001
sg31
I4
sg32
I5
sg33
I0
sg34
I0
sba(iballclient.service.util
task
p37
(dp38
g28
g24
sg29
I2
sg30
F0.001
sg31
I5
sg32
I5
sg33
I0
sg34
I0
sba(iballclient.service.util
task
p39
(dp40
g28
g24
sg29
I3
sg30
F0.001
sg31
I13
sg32
I6
sg33
I0
sg34
I0
sba(iballclient.service.util
task
p41
(dp42
g28
g24
sg29
I4
sg30
F0.001
sg31
I9
sg32
I12
sg33
I0
sg34
I0
sba(iballclient.service.util
task
p43
(dp44
g28
g24
sg29
I5
sg30
F0.001
sg31
I12
sg32
I9
sg33
I0
sg34
I0
sba(iballclient.service.util
task
p45
(dp46
g28
g24
sg29
I6
sg30
F0.001
sg31
I8
sg32
I7
sg33
I0
sg34
I0
sba(iballclient.service.util
task
p47
(dp48
g28
g24
sg29
I7
sg30
F0.001
sg31
I7
sg32
I10
sg33
I0
sg34
I0
sbasS'wormhole_list'
p49
(lp50
(iballclient.service.map
wormhole
p51
(dp52
g31
I0
sg32
I3
sS'name'
p53
VA
p54
sba(iballclient.service.map
wormhole
p55
(dp56
g31
I8
sg32
I5
sg53
Va
p57
sba(iballclient.service.map
wormhole
p58
(dp59
g31
I13
sg32
I18
sg53
VB
p60
sba(iballclient.service.map
wormhole
p61
(dp62
g31
I19
sg32
I16
sg53
Vb
p63
sbasS'height'
p64
I20
sS'width'
p65
I20
sS'tunnel_list'
p66
(lp67
(iballclient.service.map
tunnel
p68
(dp69
g31
I2
sg32
I1
sS'direction'
p70
I3
sba(iballclient.service.map
tunnel
p71
(dp72
g31
I2
sg32
I18
sg70
I4
sba(iballclient.service.map
tunnel
p73
(dp74
g31
I3
sg32
I0
sg70
I2
sba(iballclient.service.map
tunnel
p75
(dp76
g31
I3
sg32
I19
sg70
I2
sba(iballclient.service.map
tunnel
p77
(dp78
g31
I5
sg32
I6
sg70
I3
sba(iballclient.service.map
tunnel
p79
(dp80
g31
I5
sg32
I7
sg70
I3
sba(iballclient.service.map
tunnel
p81
(dp82
g31
I5
sg32
I13
sg70
I4
sba(iballclient.service.map
tunnel
p83
(dp84
g31
I5
sg32
I14
sg70
I4
sba(iballclient.service.map
tunnel
p85
(dp86
g31
I8
sg32
I2
sg70
I3
sba(iballclient.service.map
tunnel
p87
(dp88
g31
I8
sg32
I3
sg70
I3
sba(iballclient.service.map
tunnel
p89
(dp90
g31
I8
sg32
I4
sg70
I3
sba(iballclient.service.map
tunnel
p91
(dp92
g31
I8
sg32
I9
sg70
I1
sba(iballclient.service.map
tunnel
p93
(dp94
g31
I8
sg32
I14
sg70
I2
sba(iballclient.service.map
tunnel
p95
(dp96
g31
I8
sg32
I18
sg70
I1
sba(iballclient.service.map
tunnel
p97
(dp98
g31
I9
sg32
I1
sg70
I2
sba(iballclient.service.map
tunnel
p99
(dp100
g31
I9
sg32
I8
sg70
I1
sba(iballclient.service.map
tunnel
p101
(dp102
g31
I9
sg32
I10
sg70
I1
sba(iballclient.service.map
tunnel
p103
(dp104
g31
I9
sg32
I14
sg70
I2
sba(iballclient.service.map
tunnel
p105
(dp106
g31
I9
sg32
I18
sg70
I1
sba(iballclient.service.map
tunnel
p107
(dp108
g31
I10
sg32
I14
sg70
I2
sba(iballclient.service.map
tunnel
p109
(dp110
g31
I10
sg32
I18
sg70
I1
sba(iballclient.service.map
tunnel
p111
(dp112
g31
I11
sg32
I5
sg70
I2
sba(iballclient.service.map
tunnel
p113
(dp114
g31
I11
sg32
I7
sg70
I2
sba(iballclient.service.map
tunnel
p115
(dp116
g31
I11
sg32
I11
sg70
I2
sba(iballclient.service.map
tunnel
p117
(dp118
g31
I11
sg32
I14
sg70
I2
sba(iballclient.service.map
tunnel
p119
(dp120
g31
I11
sg32
I18
sg70
I1
sba(iballclient.service.map
tunnel
p121
(dp122
g31
I12
sg32
I2
sg70
I3
sba(iballclient.service.map
tunnel
p123
(dp124
g31
I12
sg32
I3
sg70
I3
sba(iballclient.service.map
tunnel
p125
(dp126
g31
I12
sg32
I4
sg70
I3
sba(iballclient.service.map
tunnel
p127
(dp128
g31
I12
sg32
I7
sg70
I2
sba(iballclient.service.map
tunnel
p129
(dp130
g31
I12
sg32
I11
sg70
I2
sba(iballclient.service.map
tunnel
p131
(dp132
g31
I12
sg32
I14
sg70
I2
sba(iballclient.service.map
tunnel
p133
(dp134
g31
I12
sg32
I18
sg70
I1
sba(iballclient.service.map
tunnel
p135
(dp136
g31
I15
sg32
I6
sg70
I3
sba(iballclient.service.map
tunnel
p137
(dp138
g31
I15
sg32
I7
sg70
I3
sba(iballclient.service.map
tunnel
p139
(dp140
g31
I15
sg32
I13
sg70
I4
sba(iballclient.service.map
tunnel
p141
(dp142
g31
I15
sg32
I14
sg70
I4
sba(iballclient.service.map
tunnel
p143
(dp144
g31
I16
sg32
I0
sg70
I1
sba(iballclient.service.map
tunnel
p145
(dp146
g31
I16
sg32
I19
sg70
I1
sba(iballclient.service.map
tunnel
p147
(dp148
g31
I17
sg32
I1
sg70
I3
sba(iballclient.service.map
tunnel
p149
(dp150
g31
I17
sg32
I18
sg70
I4
sbasS'team'
p151
(lp152
(iballclient.service.map
team
p153
(dp154
S'force'
p155
Vbeat
p156
sg34
I3024
sba(iballclient.service.map
team
p157
(dp158
g155
Vthink
p159
sg34
I1111
sbasS'meteor_list'
p160
(lp161
(iballclient.service.map
meteor
p162
(dp163
g31
I1
sg32
I1
sba(iballclient.service.map
meteor
p164
(dp165
g31
I1
sg32
I18
sba(iballclient.service.map
meteor
p166
(dp167
g31
I2
sg32
I7
sba(iballclient.service.map
meteor
p168
(dp169
g31
I2
sg32
I8
sba(iballclient.service.map
meteor
p170
(dp171
g31
I2
sg32
I9
sba(iballclient.service.map
meteor
p172
(dp173
g31
I2
sg32
I10
sba(iballclient.service.map
meteor
p174
(dp175
g31
I2
sg32
I11
sba(iballclient.service.map
meteor
p176
(dp177
g31
I2
sg32
I12
sba(iballclient.service.map
meteor
p178
(dp179
g31
I4
sg32
I8
sba(iballclient.service.map
meteor
p180
(dp181
g31
I4
sg32
I12
sba(iballclient.service.map
meteor
p182
(dp183
g31
I6
sg32
I8
sba(iballclient.service.map
meteor
p184
(dp185
g31
I6
sg32
I12
sba(iballclient.service.map
meteor
p186
(dp187
g31
I9
sg32
I15
sba(iballclient.service.map
meteor
p188
(dp189
g31
I10
sg32
I2
sba(iballclient.service.map
meteor
p190
(dp191
g31
I10
sg32
I3
sba(iballclient.service.map
meteor
p192
(dp193
g31
I10
sg32
I4
sba(iballclient.service.map
meteor
p194
(dp195
g31
I10
sg32
I7
sba(iballclient.service.map
meteor
p196
(dp197
g31
I10
sg32
I8
sba(iballclient.service.map
meteor
p198
(dp199
g31
I10
sg32
I9
sba(iballclient.service.map
meteor
p200
(dp201
g31
I10
sg32
I10
sba(iballclient.service.map
meteor
p202
(dp203
g31
I10
sg32
I11
sba(iballclient.service.map
meteor
p204
(dp205
g31
I10
sg32
I16
sba(iballclient.service.map
meteor
p206
(dp207
g31
I11
sg32
I17
sba(iballclient.service.map
meteor
p208
(dp209
g31
I14
sg32
I8
sba(iballclient.service.map
meteor
p210
(dp211
g31
I14
sg32
I12
sba(iballclient.service.map
meteor
p212
(dp213
g31
I16
sg32
I8
sba(iballclient.service.map
meteor
p214
(dp215
g31
I16
sg32
I12
sba(iballclient.service.map
meteor
p216
(dp217
g31
I17
sg32
I3
sba(iballclient.service.map
meteor
p218
(dp219
g31
I17
sg32
I4
sba(iballclient.service.map
meteor
p220
(dp221
g31
I17
sg32
I5
sba(iballclient.service.map
meteor
p222
(dp223
g31
I17
sg32
I6
sba(iballclient.service.map
meteor
p224
(dp225
g31
I17
sg32
I14
sba(iballclient.service.map
meteor
p226
(dp227
g31
I17
sg32
I15
sba(iballclient.service.map
meteor
p228
(dp229
g31
I17
sg32
I16
sba(iballclient.service.map
meteor
p230
(dp231
g31
I18
sg32
I1
sba(iballclient.service.map
meteor
p232
(dp233
g31
I18
sg32
I18
sbasS'vision'
p234
I4
sb.