(iballclient.service.map
Map
p0
(dp1
S'map'
p2
(lp3
(lp4
I0
aI0
aI0
aI0
aI0
aI0
aI0
aI0
aI0
aI0
aI0
aI0
aI0
aI0
aI0
aI0
aI0
aI0
aI0
aI3
aa(lp5
I0
aI0
aI0
aI0
aI0
aI0
aI0
aI0
aI0
aI0
aI0
aI0
aI0
aI0
aI0
aI0
aI0
aI0
aI1
aI1
aa(lp6
I0
aI0
aI0
aI0
aI0
aI0
aI0
aI0
aI0
aI0
aI0
aI0
aI0
aI0
aI0
aI0
aI0
aI0
aI0
aI0
aa(lp7
I0
aI0
aI0
aI0
aI0
aI0
aI0
aI0
aI0
aI0
aI0
aI0
aI0
aI0
aI0
aI0
aI0
aI0
aI0
aI0
aa(lp8
I0
aI0
aI0
aI0
aI0
aI0
aI0
aI1
aI1
aI0
aI0
aI1
aI1
aI0
aI0
aI0
aI0
aI0
aI0
aI0
aa(lp9
I0
aI0
aI0
aI0
aI0
aI2
aI2
aI2
aI2
aI2
aI2
aI2
aI2
aI2
aI2
aI0
aI0
aI0
aI0
aI0
aa(lp10
I0
aI0
aI0
aI0
aI0
aI2
aI0
aI0
aI0
aI0
aI0
aI0
aI0
aI3
aI2
aI0
aI0
aI0
aI0
aI0
aa(lp11
I0
aI0
aI0
aI0
aI1
aI2
aI0
aI0
aI0
aI0
aI0
aI0
aI0
aI0
aI2
aI1
aI0
aI0
aI0
aI0
aa(lp12
I0
aI0
aI0
aI0
aI1
aI2
aI0
aI0
aI0
aI0
aI0
aI0
aI0
aI0
aI2
aI1
aI0
aI0
aI0
aI0
aa(lp13
I0
aI0
aI0
aI0
aI0
aI2
aI0
aI0
aI0
aI0
aI0
aI0
aI0
aI0
aI2
aI0
aI0
aI0
aI0
aI0
aa(lp14
I0
aI0
aI0
aI0
aI0
aI2
aI0
aI0
aI0
aI0
aI0
aI0
aI0
aI0
aI2
aI0
aI0
aI0
aI0
aI0
aa(lp15
I0
aI0
aI0
aI0
aI1
aI2
aI0
aI0
aI0
aI0
aI0
aI0
aI0
aI0
aI2
aI1
aI0
aI0
aI0
aI0
aa(lp16
I0
aI0
aI0
aI0
aI1
aI2
aI0
aI0
aI0
aI0
aI0
aI0
aI0
aI0
aI2
aI1
aI0
aI0
aI0
aI0
aa(lp17
I0
aI0
aI0
aI0
aI0
aI2
aI3
aI0
aI0
aI0
aI0
aI0
aI0
aI0
aI2
aI0
aI0
aI0
aI0
aI0
aa(lp18
I0
aI0
aI0
aI0
aI0
aI2
aI2
aI2
aI2
aI2
aI2
aI2
aI2
aI2
aI2
aI0
aI0
aI0
aI0
aI0
aa(lp19
I0
aI0
aI0
aI0
aI0
aI0
aI0
aI1
aI1
aI0
aI0
aI1
aI1
aI0
aI0
aI0
aI0
aI0
aI0
aI0
aa(lp20
I0
aI0
aI0
aI0
aI0
aI0
aI0
aI0
aI0
aI0
aI0
aI0
aI0
aI0
aI0
aI0
aI0
aI0
aI0
aI0
aa(lp21
I0
aI0
aI0
aI0
aI0
aI0
aI0
aI0
aI0
aI0
aI0
aI0
aI0
aI0
aI0
aI0
aI0
aI0
aI0
aI0
aa(lp22
I1
aI1
aI0
aI0
aI0
aI0
aI0
aI0
aI0
aI0
aI0
aI0
aI0
aI0
aI0
aI0
aI0
aI0
aI0
aI0
aa(lp23
I3
aI0
aI0
aI0
aI0
aI0
aI0
aI0
aI0
aI0
aI0
aI0
aI0
aI0
aI0
aI0
aI0
aI0
aI0
aI0
aasS'wander_task'
p24
(lp25
(iballclient.service.util
task
p26
(dp27
S'y'
p28
I15
sS'x'
p29
I6
sS'info'
p30
g24
sS'value'
p31
F0.001
sba(iballclient.service.util
task
p32
(dp33
g28
I12
sg29
I12
sg30
g24
sg31
F0.001
sba(iballclient.service.util
task
p34
(dp35
g28
I9
sg29
I9
sg30
g24
sg31
F0.001
sba(iballclient.service.util
task
p36
(dp37
g28
I12
sg29
I8
sg30
g24
sg31
F0.001
sba(iballclient.service.util
task
p38
(dp39
g28
I14
sg29
I4
sg30
g24
sg31
F0.001
sba(iballclient.service.util
task
p40
(dp41
g28
I8
sg29
I11
sg30
g24
sg31
F0.001
sba(iballclient.service.util
task
p42
(dp43
g28
I4
sg29
I13
sg30
g24
sg31
F0.001
sba(iballclient.service.util
task
p44
(dp45
g28
I7
sg29
I9
sg30
g24
sg31
F0.001
sbasS'wormhole_list'
p46
(lp47
(iballclient.service.map
wormhole
p48
(dp49
g28
I0
sg29
I19
sS'name'
p50
VA
p51
sba(iballclient.service.map
wormhole
p52
(dp53
g28
I6
sg29
I13
sg50
Vb
p54
sba(iballclient.service.map
wormhole
p55
(dp56
g28
I13
sg29
I6
sg50
Va
p57
sba(iballclient.service.map
wormhole
p58
(dp59
g28
I19
sg29
I0
sg50
VB
p60
sbasS'height'
p61
I20
sS'width'
p62
I20
sS'tunnel_list'
p63
(lp64
(iballclient.service.map
tunnel
p65
(dp66
g28
I5
sg29
I5
sS'direction'
p67
I1
sba(iballclient.service.map
tunnel
p68
(dp69
g28
I5
sg29
I6
sg67
I4
sba(iballclient.service.map
tunnel
p70
(dp71
g28
I5
sg29
I7
sg67
I4
sba(iballclient.service.map
tunnel
p72
(dp73
g28
I5
sg29
I8
sg67
I4
sba(iballclient.service.map
tunnel
p74
(dp75
g28
I5
sg29
I9
sg67
I4
sba(iballclient.service.map
tunnel
p76
(dp77
g28
I5
sg29
I10
sg67
I4
sba(iballclient.service.map
tunnel
p78
(dp79
g28
I5
sg29
I11
sg67
I4
sba(iballclient.service.map
tunnel
p80
(dp81
g28
I5
sg29
I12
sg67
I4
sba(iballclient.service.map
tunnel
p82
(dp83
g28
I5
sg29
I13
sg67
I4
sba(iballclient.service.map
tunnel
p84
(dp85
g28
I5
sg29
I14
sg67
I4
sba(iballclient.service.map
tunnel
p86
(dp87
g28
I6
sg29
I5
sg67
I1
sba(iballclient.service.map
tunnel
p88
(dp89
g28
I6
sg29
I14
sg67
I2
sba(iballclient.service.map
tunnel
p90
(dp91
g28
I7
sg29
I5
sg67
I1
sba(iballclient.service.map
tunnel
p92
(dp93
g28
I7
sg29
I14
sg67
I2
sba(iballclient.service.map
tunnel
p94
(dp95
g28
I8
sg29
I5
sg67
I1
sba(iballclient.service.map
tunnel
p96
(dp97
g28
I8
sg29
I14
sg67
I2
sba(iballclient.service.map
tunnel
p98
(dp99
g28
I9
sg29
I5
sg67
I1
sba(iballclient.service.map
tunnel
p100
(dp101
g28
I9
sg29
I14
sg67
I2
sba(iballclient.service.map
tunnel
p102
(dp103
g28
I10
sg29
I5
sg67
I1
sba(iballclient.service.map
tunnel
p104
(dp105
g28
I10
sg29
I14
sg67
I2
sba(iballclient.service.map
tunnel
p106
(dp107
g28
I11
sg29
I5
sg67
I1
sba(iballclient.service.map
tunnel
p108
(dp109
g28
I11
sg29
I14
sg67
I2
sba(iballclient.service.map
tunnel
p110
(dp111
g28
I12
sg29
I5
sg67
I1
sba(iballclient.service.map
tunnel
p112
(dp113
g28
I12
sg29
I14
sg67
I2
sba(iballclient.service.map
tunnel
p114
(dp115
g28
I13
sg29
I5
sg67
I1
sba(iballclient.service.map
tunnel
p116
(dp117
g28
I13
sg29
I14
sg67
I2
sba(iballclient.service.map
tunnel
p118
(dp119
g28
I14
sg29
I5
sg67
I3
sba(iballclient.service.map
tunnel
p120
(dp121
g28
I14
sg29
I6
sg67
I3
sba(iballclient.service.map
tunnel
p122
(dp123
g28
I14
sg29
I7
sg67
I3
sba(iballclient.service.map
tunnel
p124
(dp125
g28
I14
sg29
I8
sg67
I3
sba(iballclient.service.map
tunnel
p126
(dp127
g28
I14
sg29
I9
sg67
I3
sba(iballclient.service.map
tunnel
p128
(dp129
g28
I14
sg29
I10
sg67
I3
sba(iballclient.service.map
tunnel
p130
(dp131
g28
I14
sg29
I11
sg67
I3
sba(iballclient.service.map
tunnel
p132
(dp133
g28
I14
sg29
I12
sg67
I3
sba(iballclient.service.map
tunnel
p134
(dp135
g28
I14
sg29
I13
sg67
I3
sba(iballclient.service.map
tunnel
p136
(dp137
g28
I14
sg29
I14
sg67
I2
sbasS'team'
p138
(lp139
(iballclient.service.map
team
p140
(dp141
S'players'
p142
(lp143
I0
aI1
aI2
aI3
asS'force'
p144
Vbeat
p145
sS'id'
p146
I3333
sba(iballclient.service.map
team
p147
(dp148
g142
(lp149
I4
aI5
aI6
aI7
asg144
Vthink
p150
sg146
I3024
sbasS'meteor_list'
p151
(lp152
(iballclient.service.map
meteor
p153
(dp154
g28
I1
sg29
I18
sba(iballclient.service.map
meteor
p155
(dp156
g28
I1
sg29
I19
sba(iballclient.service.map
meteor
p157
(dp158
g28
I4
sg29
I7
sba(iballclient.service.map
meteor
p159
(dp160
g28
I4
sg29
I8
sba(iballclient.service.map
meteor
p161
(dp162
g28
I4
sg29
I11
sba(iballclient.service.map
meteor
p163
(dp164
g28
I4
sg29
I12
sba(iballclient.service.map
meteor
p165
(dp166
g28
I7
sg29
I4
sba(iballclient.service.map
meteor
p167
(dp168
g28
I7
sg29
I15
sba(iballclient.service.map
meteor
p169
(dp170
g28
I8
sg29
I4
sba(iballclient.service.map
meteor
p171
(dp172
g28
I8
sg29
I15
sba(iballclient.service.map
meteor
p173
(dp174
g28
I11
sg29
I4
sba(iballclient.service.map
meteor
p175
(dp176
g28
I11
sg29
I15
sba(iballclient.service.map
meteor
p177
(dp178
g28
I12
sg29
I4
sba(iballclient.service.map
meteor
p179
(dp180
g28
I12
sg29
I15
sba(iballclient.service.map
meteor
p181
(dp182
g28
I15
sg29
I7
sba(iballclient.service.map
meteor
p183
(dp184
g28
I15
sg29
I8
sba(iballclient.service.map
meteor
p185
(dp186
g28
I15
sg29
I11
sba(iballclient.service.map
meteor
p187
(dp188
g28
I15
sg29
I12
sba(iballclient.service.map
meteor
p189
(dp190
g28
I18
sg29
I0
sba(iballclient.service.map
meteor
p191
(dp192
g28
I18
sg29
I1
sbasS'vision'
p193
I4
sb..