(iballclient.service.map
Map
p0
(dp1
S'map'
p2
(lp3
(lp4
I0
aI0
aI0
aI3
aI0
aI0
aI0
aI0
aI0
aI0
aI0
aI0
aI0
aI0
aI0
aI0
aI0
aI0
aI0
aI0
aa(lp5
I0
aI1
aI0
aI0
aI0
aI0
aI0
aI0
aI0
aI0
aI0
aI0
aI0
aI0
aI0
aI0
aI0
aI0
aI1
aI0
aa(lp6
I0
aI2
aI0
aI0
aI0
aI0
aI0
aI1
aI1
aI1
aI1
aI1
aI1
aI0
aI0
aI0
aI0
aI0
aI2
aI0
aa(lp7
I2
aI0
aI0
aI0
aI0
aI0
aI0
aI0
aI0
aI0
aI0
aI0
aI0
aI0
aI0
aI0
aI0
aI0
aI0
aI2
aa(lp8
I0
aI0
aI0
aI0
aI0
aI0
aI0
aI0
aI1
aI0
aI0
aI0
aI1
aI0
aI0
aI0
aI0
aI0
aI0
aI0
aa(lp9
I0
aI0
aI0
aI0
aI0
aI0
aI2
aI2
aI0
aI0
aI0
aI0
aI0
aI2
aI2
aI0
aI0
aI0
aI0
aI0
aa(lp10
I0
aI0
aI0
aI0
aI0
aI0
aI0
aI0
aI1
aI0
aI0
aI0
aI1
aI0
aI0
aI0
aI0
aI0
aI0
aI0
aa(lp11
I0
aI0
aI0
aI0
aI0
aI0
aI0
aI0
aI0
aI0
aI0
aI0
aI0
aI0
aI0
aI0
aI0
aI0
aI0
aI0
aa(lp12
I0
aI0
aI2
aI2
aI2
aI3
aI0
aI0
aI0
aI2
aI0
aI0
aI0
aI0
aI2
aI0
aI0
aI0
aI2
aI0
aa(lp13
I0
aI2
aI0
aI0
aI0
aI0
aI0
aI0
aI2
aI0
aI2
aI0
aI0
aI0
aI2
aI1
aI0
aI0
aI2
aI0
aa(lp14
I0
aI0
aI1
aI1
aI1
aI0
aI0
aI1
aI1
aI1
aI1
aI1
aI0
aI0
aI2
aI0
aI1
aI0
aI2
aI0
aa(lp15
I0
aI0
aI0
aI0
aI0
aI2
aI0
aI2
aI0
aI0
aI0
aI2
aI0
aI0
aI2
aI0
aI0
aI1
aI2
aI0
aa(lp16
I0
aI0
aI2
aI2
aI2
aI0
aI0
aI2
aI0
aI0
aI0
aI2
aI0
aI0
aI2
aI0
aI0
aI0
aI2
aI0
aa(lp17
I0
aI0
aI0
aI0
aI0
aI0
aI0
aI0
aI0
aI0
aI0
aI0
aI0
aI0
aI0
aI0
aI0
aI0
aI3
aI0
aa(lp18
I0
aI0
aI0
aI0
aI0
aI0
aI0
aI0
aI1
aI0
aI0
aI0
aI1
aI0
aI0
aI0
aI0
aI0
aI0
aI0
aa(lp19
I0
aI0
aI0
aI0
aI0
aI0
aI2
aI2
aI0
aI0
aI0
aI0
aI0
aI2
aI2
aI0
aI0
aI0
aI0
aI0
aa(lp20
I2
aI0
aI0
aI0
aI0
aI0
aI0
aI0
aI1
aI0
aI0
aI0
aI1
aI0
aI0
aI0
aI0
aI0
aI0
aI2
aa(lp21
I0
aI2
aI0
aI1
aI1
aI1
aI1
aI0
aI0
aI0
aI0
aI0
aI0
aI0
aI1
aI1
aI1
aI0
aI2
aI0
aa(lp22
I0
aI1
aI0
aI0
aI0
aI0
aI0
aI0
aI0
aI0
aI0
aI0
aI0
aI0
aI0
aI0
aI0
aI0
aI1
aI0
aa(lp23
I0
aI0
aI0
aI0
aI0
aI0
aI0
aI0
aI0
aI0
aI0
aI0
aI0
aI0
aI0
aI0
aI3
aI0
aI0
aI0
aasS'wander_task'
p24
(lp25
(iballclient.service.util
task
p26
(dp27
S'info'
p28
g24
sS'direction'
p29
I0
sS'ownIndex'
p30
I0
sS'value'
p31
F0.001
sS'y'
p32
I13
sS'x'
p33
I13
sS'task_state'
p34
I0
sS'id'
p35
I0
sba(iballclient.service.util
task
p36
(dp37
g28
g24
sg29
I0
sg30
I1
sg31
F0.001
sg32
I5
sg33
I4
sg34
I0
sg35
I0
sba(iballclient.service.util
task
p38
(dp39
g28
g24
sg29
I0
sg30
I2
sg31
F0.001
sg32
I6
sg33
I6
sg34
I0
sg35
I0
sba(iballclient.service.util
task
p40
(dp41
g28
g24
sg29
I0
sg30
I3
sg31
F0.001
sg32
I7
sg33
I5
sg34
I0
sg35
I0
sba(iballclient.service.util
task
p42
(dp43
g28
g24
sg29
I0
sg30
I4
sg31
F0.001
sg32
I7
sg33
I15
sg34
I0
sg35
I0
sba(iballclient.service.util
task
p44
(dp45
g28
g24
sg29
I0
sg30
I5
sg31
F0.001
sg32
I4
sg33
I5
sg34
I0
sg35
I0
sba(iballclient.service.util
task
p46
(dp47
g28
g24
sg29
I0
sg30
I6
sg31
F0.001
sg32
I7
sg33
I11
sg34
I0
sg35
I0
sba(iballclient.service.util
task
p48
(dp49
g28
g24
sg29
I0
sg30
I7
sg31
F0.001
sg32
I13
sg33
I15
sg34
I0
sg35
I0
sbasS'wormhole_list'
p50
(lp51
(iballclient.service.map
wormhole
p52
(dp53
g32
I0
sg33
I3
sS'name'
p54
VA
p55
sba(iballclient.service.map
wormhole
p56
(dp57
g32
I8
sg33
I5
sg54
Va
p58
sba(iballclient.service.map
wormhole
p59
(dp60
g32
I13
sg33
I18
sg54
VB
p61
sba(iballclient.service.map
wormhole
p62
(dp63
g32
I19
sg33
I16
sg54
Vb
p64
sbasS'height'
p65
I20
sS'width'
p66
I20
sS'tunnel_list'
p67
(lp68
(iballclient.service.map
tunnel
p69
(dp70
g32
I2
sg33
I1
sg29
I3
sba(iballclient.service.map
tunnel
p71
(dp72
g32
I2
sg33
I18
sg29
I4
sba(iballclient.service.map
tunnel
p73
(dp74
g32
I3
sg33
I0
sg29
I2
sba(iballclient.service.map
tunnel
p75
(dp76
g32
I3
sg33
I19
sg29
I2
sba(iballclient.service.map
tunnel
p77
(dp78
g32
I5
sg33
I6
sg29
I3
sba(iballclient.service.map
tunnel
p79
(dp80
g32
I5
sg33
I7
sg29
I3
sba(iballclient.service.map
tunnel
p81
(dp82
g32
I5
sg33
I13
sg29
I4
sba(iballclient.service.map
tunnel
p83
(dp84
g32
I5
sg33
I14
sg29
I4
sba(iballclient.service.map
tunnel
p85
(dp86
g32
I8
sg33
I2
sg29
I3
sba(iballclient.service.map
tunnel
p87
(dp88
g32
I8
sg33
I3
sg29
I3
sba(iballclient.service.map
tunnel
p89
(dp90
g32
I8
sg33
I4
sg29
I3
sba(iballclient.service.map
tunnel
p91
(dp92
g32
I8
sg33
I9
sg29
I1
sba(iballclient.service.map
tunnel
p93
(dp94
g32
I8
sg33
I14
sg29
I2
sba(iballclient.service.map
tunnel
p95
(dp96
g32
I8
sg33
I18
sg29
I1
sba(iballclient.service.map
tunnel
p97
(dp98
g32
I9
sg33
I1
sg29
I2
sba(iballclient.service.map
tunnel
p99
(dp100
g32
I9
sg33
I8
sg29
I1
sba(iballclient.service.map
tunnel
p101
(dp102
g32
I9
sg33
I10
sg29
I1
sba(iballclient.service.map
tunnel
p103
(dp104
g32
I9
sg33
I14
sg29
I2
sba(iballclient.service.map
tunnel
p105
(dp106
g32
I9
sg33
I18
sg29
I1
sba(iballclient.service.map
tunnel
p107
(dp108
g32
I10
sg33
I14
sg29
I2
sba(iballclient.service.map
tunnel
p109
(dp110
g32
I10
sg33
I18
sg29
I1
sba(iballclient.service.map
tunnel
p111
(dp112
g32
I11
sg33
I5
sg29
I2
sba(iballclient.service.map
tunnel
p113
(dp114
g32
I11
sg33
I7
sg29
I2
sba(iballclient.service.map
tunnel
p115
(dp116
g32
I11
sg33
I11
sg29
I2
sba(iballclient.service.map
tunnel
p117
(dp118
g32
I11
sg33
I14
sg29
I2
sba(iballclient.service.map
tunnel
p119
(dp120
g32
I11
sg33
I18
sg29
I1
sba(iballclient.service.map
tunnel
p121
(dp122
g32
I12
sg33
I2
sg29
I3
sba(iballclient.service.map
tunnel
p123
(dp124
g32
I12
sg33
I3
sg29
I3
sba(iballclient.service.map
tunnel
p125
(dp126
g32
I12
sg33
I4
sg29
I3
sba(iballclient.service.map
tunnel
p127
(dp128
g32
I12
sg33
I7
sg29
I2
sba(iballclient.service.map
tunnel
p129
(dp130
g32
I12
sg33
I11
sg29
I2
sba(iballclient.service.map
tunnel
p131
(dp132
g32
I12
sg33
I14
sg29
I2
sba(iballclient.service.map
tunnel
p133
(dp134
g32
I12
sg33
I18
sg29
I1
sba(iballclient.service.map
tunnel
p135
(dp136
g32
I15
sg33
I6
sg29
I3
sba(iballclient.service.map
tunnel
p137
(dp138
g32
I15
sg33
I7
sg29
I3
sba(iballclient.service.map
tunnel
p139
(dp140
g32
I15
sg33
I13
sg29
I4
sba(iballclient.service.map
tunnel
p141
(dp142
g32
I15
sg33
I14
sg29
I4
sba(iballclient.service.map
tunnel
p143
(dp144
g32
I16
sg33
I0
sg29
I1
sba(iballclient.service.map
tunnel
p145
(dp146
g32
I16
sg33
I19
sg29
I1
sba(iballclient.service.map
tunnel
p147
(dp148
g32
I17
sg33
I1
sg29
I3
sba(iballclient.service.map
tunnel
p149
(dp150
g32
I17
sg33
I18
sg29
I4
sbasS'team'
p151
(lp152
(iballclient.service.map
team
p153
(dp154
S'force'
p155
Vbeat
p156
sg35
I3024
sba(iballclient.service.map
team
p157
(dp158
g155
Vthink
p159
sg35
I1111
sbasS'meteor_list'
p160
(lp161
(iballclient.service.map
meteor
p162
(dp163
g32
I1
sg33
I1
sba(iballclient.service.map
meteor
p164
(dp165
g32
I1
sg33
I18
sba(iballclient.service.map
meteor
p166
(dp167
g32
I2
sg33
I7
sba(iballclient.service.map
meteor
p168
(dp169
g32
I2
sg33
I8
sba(iballclient.service.map
meteor
p170
(dp171
g32
I2
sg33
I9
sba(iballclient.service.map
meteor
p172
(dp173
g32
I2
sg33
I10
sba(iballclient.service.map
meteor
p174
(dp175
g32
I2
sg33
I11
sba(iballclient.service.map
meteor
p176
(dp177
g32
I2
sg33
I12
sba(iballclient.service.map
meteor
p178
(dp179
g32
I4
sg33
I8
sba(iballclient.service.map
meteor
p180
(dp181
g32
I4
sg33
I12
sba(iballclient.service.map
meteor
p182
(dp183
g32
I6
sg33
I8
sba(iballclient.service.map
meteor
p184
(dp185
g32
I6
sg33
I12
sba(iballclient.service.map
meteor
p186
(dp187
g32
I9
sg33
I15
sba(iballclient.service.map
meteor
p188
(dp189
g32
I10
sg33
I2
sba(iballclient.service.map
meteor
p190
(dp191
g32
I10
sg33
I3
sba(iballclient.service.map
meteor
p192
(dp193
g32
I10
sg33
I4
sba(iballclient.service.map
meteor
p194
(dp195
g32
I10
sg33
I7
sba(iballclient.service.map
meteor
p196
(dp197
g32
I10
sg33
I8
sba(iballclient.service.map
meteor
p198
(dp199
g32
I10
sg33
I9
sba(iballclient.service.map
meteor
p200
(dp201
g32
I10
sg33
I10
sba(iballclient.service.map
meteor
p202
(dp203
g32
I10
sg33
I11
sba(iballclient.service.map
meteor
p204
(dp205
g32
I10
sg33
I16
sba(iballclient.service.map
meteor
p206
(dp207
g32
I11
sg33
I17
sba(iballclient.service.map
meteor
p208
(dp209
g32
I14
sg33
I8
sba(iballclient.service.map
meteor
p210
(dp211
g32
I14
sg33
I12
sba(iballclient.service.map
meteor
p212
(dp213
g32
I16
sg33
I8
sba(iballclient.service.map
meteor
p214
(dp215
g32
I16
sg33
I12
sba(iballclient.service.map
meteor
p216
(dp217
g32
I17
sg33
I3
sba(iballclient.service.map
meteor
p218
(dp219
g32
I17
sg33
I4
sba(iballclient.service.map
meteor
p220
(dp221
g32
I17
sg33
I5
sba(iballclient.service.map
meteor
p222
(dp223
g32
I17
sg33
I6
sba(iballclient.service.map
meteor
p224
(dp225
g32
I17
sg33
I14
sba(iballclient.service.map
meteor
p226
(dp227
g32
I17
sg33
I15
sba(iballclient.service.map
meteor
p228
(dp229
g32
I17
sg33
I16
sba(iballclient.service.map
meteor
p230
(dp231
g32
I18
sg33
I1
sba(iballclient.service.map
meteor
p232
(dp233
g32
I18
sg33
I18
sbasS'vision'
p234
I4
sb.